target datalayout = "e-m:e-p270:32:32-p271:32:32-p272:64:64-i64:64-i128:128-f80:128-n8:16:32:64-S128"
target triple = "x86_64-pc-linux-gnu"

%"class.std::__cxx11::basic_string" = type { %"struct.std::__cxx11::basic_string<char>::_Alloc_hider", i64, %union.anon }
%"struct.std::__cxx11::basic_string<char>::_Alloc_hider" = type { ptr }
%union.anon = type { i64, [8 x i8] }

@_ZN8tinygltfL12base64_charsB5cxx11E = internal global %"class.std::__cxx11::basic_string" zeroinitializer, align 8

; Function Attrs: mustprogress uwtable
define dso_local void @_ZN8tinygltf13base64_encodeB5cxx11EPKhj(ptr dead_on_unwind noalias writable sret(%"class.std::__cxx11::basic_string") align 8 %0, ptr noundef %1, i32 noundef %2) #4 personality ptr @__gxx_personality_v0 {
  %4 = alloca ptr, align 8
  %5 = alloca ptr, align 8
  %6 = alloca i32, align 4
  %7 = alloca i1, align 1
  %8 = alloca i32, align 4
  %9 = alloca i32, align 4
  %10 = alloca [3 x i8], align 1
  %11 = alloca [4 x i8], align 1
  %12 = alloca ptr, align 8
  %13 = alloca i32, align 4
  store ptr %0, ptr %4, align 8
  store ptr %1, ptr %5, align 8
  store i32 %2, ptr %6, align 4
  store i1 false, ptr %7, align 1
  call void @_ZNSt7__cxx1112basic_stringIcSt11char_traitsIcESaIcEEC1Ev(ptr noundef nonnull align 8 dereferenceable(32) %0) #3
  store i32 0, ptr %8, align 4
  store i32 0, ptr %9, align 4
  br label %14

14:                                               ; preds = %89, %3
  %15 = load i32, ptr %6, align 4
  %16 = add i32 %15, -1
  store i32 %16, ptr %6, align 4
  %17 = icmp ne i32 %15, 0
  br i1 %17, label %18, label %90

18:                                               ; preds = %14
  %19 = load ptr, ptr %5, align 8
  %20 = getelementptr inbounds i8, ptr %19, i32 1
  store ptr %20, ptr %5, align 8
  %21 = load i8, ptr %19, align 1
  %22 = load i32, ptr %8, align 4
  %23 = add nsw i32 %22, 1
  store i32 %23, ptr %8, align 4
  %24 = sext i32 %22 to i64
  %25 = getelementptr inbounds [3 x i8], ptr %10, i64 0, i64 %24
  store i8 %21, ptr %25, align 1
  %26 = load i32, ptr %8, align 4
  %27 = icmp eq i32 %26, 3
  br i1 %27, label %28, label %89

28:                                               ; preds = %18
  %29 = getelementptr inbounds [3 x i8], ptr %10, i64 0, i64 0
  %30 = load i8, ptr %29, align 1
  %31 = zext i8 %30 to i32
  %32 = and i32 %31, 252
  %33 = ashr i32 %32, 2
  %34 = trunc i32 %33 to i8
  %35 = getelementptr inbounds [4 x i8], ptr %11, i64 0, i64 0
  store i8 %34, ptr %35, align 1
  %36 = getelementptr inbounds [3 x i8], ptr %10, i64 0, i64 0
  %37 = load i8, ptr %36, align 1
  %38 = zext i8 %37 to i32
  %39 = and i32 %38, 3
  %40 = shl i32 %39, 4
  %41 = getelementptr inbounds [3 x i8], ptr %10, i64 0, i64 1
  %42 = load i8, ptr %41, align 1
  %43 = zext i8 %42 to i32
  %44 = and i32 %43, 240
  %45 = ashr i32 %44, 4
  %46 = add nsw i32 %40, %45
  %47 = trunc i32 %46 to i8
  %48 = getelementptr inbounds [4 x i8], ptr %11, i64 0, i64 1
  store i8 %47, ptr %48, align 1
  %49 = getelementptr inbounds [3 x i8], ptr %10, i64 0, i64 1
  %50 = load i8, ptr %49, align 1
  %51 = zext i8 %50 to i32
  %52 = and i32 %51, 15
  %53 = shl i32 %52, 2
  %54 = getelementptr inbounds [3 x i8], ptr %10, i64 0, i64 2
  %55 = load i8, ptr %54, align 1
  %56 = zext i8 %55 to i32
  %57 = and i32 %56, 192
  %58 = ashr i32 %57, 6
  %59 = add nsw i32 %53, %58
  %60 = trunc i32 %59 to i8
  %61 = getelementptr inbounds [4 x i8], ptr %11, i64 0, i64 2
  store i8 %60, ptr %61, align 1
  %62 = getelementptr inbounds [3 x i8], ptr %10, i64 0, i64 2
  %63 = load i8, ptr %62, align 1
  %64 = zext i8 %63 to i32
  %65 = and i32 %64, 63
  %66 = trunc i32 %65 to i8
  %67 = getelementptr inbounds [4 x i8], ptr %11, i64 0, i64 3
  store i8 %66, ptr %67, align 1
  store i32 0, ptr %8, align 4
  br label %68

68:                                               ; preds = %81, %28
  %69 = load i32, ptr %8, align 4
  %70 = icmp slt i32 %69, 4
  br i1 %70, label %71, label %88

71:                                               ; preds = %68
  %72 = load i32, ptr %8, align 4
  %73 = sext i32 %72 to i64
  %74 = getelementptr inbounds [4 x i8], ptr %11, i64 0, i64 %73
  %75 = load i8, ptr %74, align 1
  %76 = zext i8 %75 to i64
  %77 = call noundef nonnull align 1 dereferenceable(1) ptr @_ZNKSt7__cxx1112basic_stringIcSt11char_traitsIcESaIcEEixEm(ptr noundef nonnull align 8 dereferenceable(32) @_ZN8tinygltfL12base64_charsB5cxx11E, i64 noundef %76) #3
  %78 = load i8, ptr %77, align 1
  %79 = invoke noundef nonnull align 8 dereferenceable(32) ptr @_ZNSt7__cxx1112basic_stringIcSt11char_traitsIcESaIcEEpLEc(ptr noundef nonnull align 8 dereferenceable(32) %0, i8 noundef signext %78)
          to label %80 unwind label %84

80:                                               ; preds = %71
  br label %81

81:                                               ; preds = %80
  %82 = load i32, ptr %8, align 4
  %83 = add nsw i32 %82, 1
  store i32 %83, ptr %8, align 4
  br label %68, !llvm.loop !8

84:                                               ; preds = %162, %144, %71
  %85 = landingpad { ptr, i32 }
          cleanup
  %86 = extractvalue { ptr, i32 } %85, 0
  store ptr %86, ptr %12, align 8
  %87 = extractvalue { ptr, i32 } %85, 1
  store i32 %87, ptr %13, align 4
  call void @_ZNSt7__cxx1112basic_stringIcSt11char_traitsIcESaIcEED1Ev(ptr noundef nonnull align 8 dereferenceable(32) %0) #3
  br label %170

88:                                               ; preds = %68
  store i32 0, ptr %8, align 4
  br label %89

89:                                               ; preds = %88, %18
  br label %14, !llvm.loop !9

90:                                               ; preds = %14
  %91 = load i32, ptr %8, align 4
  %92 = icmp ne i32 %91, 0
  br i1 %92, label %93, label %166

93:                                               ; preds = %90
  %94 = load i32, ptr %8, align 4
  store i32 %94, ptr %9, align 4
  br label %95

95:                                               ; preds = %102, %93
  %96 = load i32, ptr %9, align 4
  %97 = icmp slt i32 %96, 3
  br i1 %97, label %98, label %105

98:                                               ; preds = %95
  %99 = load i32, ptr %9, align 4
  %100 = sext i32 %99 to i64
  %101 = getelementptr inbounds [3 x i8], ptr %10, i64 0, i64 %100
  store i8 0, ptr %101, align 1
  br label %102

102:                                              ; preds = %98
  %103 = load i32, ptr %9, align 4
  %104 = add nsw i32 %103, 1
  store i32 %104, ptr %9, align 4
  br label %95, !llvm.loop !10

105:                                              ; preds = %95
  %106 = getelementptr inbounds [3 x i8], ptr %10, i64 0, i64 0
  %107 = load i8, ptr %106, align 1
  %108 = zext i8 %107 to i32
  %109 = and i32 %108, 252
  %110 = ashr i32 %109, 2
  %111 = trunc i32 %110 to i8
  %112 = getelementptr inbounds [4 x i8], ptr %11, i64 0, i64 0
  store i8 %111, ptr %112, align 1
  %113 = getelementptr inbounds [3 x i8], ptr %10, i64 0, i64 0
  %114 = load i8, ptr %113, align 1
  %115 = zext i8 %114 to i32
  %116 = and i32 %115, 3
  %117 = shl i32 %116, 4
  %118 = getelementptr inbounds [3 x i8], ptr %10, i64 0, i64 1
  %119 = load i8, ptr %118, align 1
  %120 = zext i8 %119 to i32
  %121 = and i32 %120, 240
  %122 = ashr i32 %121, 4
  %123 = add nsw i32 %117, %122
  %124 = trunc i32 %123 to i8
  %125 = getelementptr inbounds [4 x i8], ptr %11, i64 0, i64 1
  store i8 %124, ptr %125, align 1
  %126 = getelementptr inbounds [3 x i8], ptr %10, i64 0, i64 1
  %127 = load i8, ptr %126, align 1
  %128 = zext i8 %127 to i32
  %129 = and i32 %128, 15
  %130 = shl i32 %129, 2
  %131 = getelementptr inbounds [3 x i8], ptr %10, i64 0, i64 2
  %132 = load i8, ptr %131, align 1
  %133 = zext i8 %132 to i32
  %134 = and i32 %133, 192
  %135 = ashr i32 %134, 6
  %136 = add nsw i32 %130, %135
  %137 = trunc i32 %136 to i8
  %138 = getelementptr inbounds [4 x i8], ptr %11, i64 0, i64 2
  store i8 %137, ptr %138, align 1
  store i32 0, ptr %9, align 4
  br label %139

139:                                              ; preds = %154, %105
  %140 = load i32, ptr %9, align 4
  %141 = load i32, ptr %8, align 4
  %142 = add nsw i32 %141, 1
  %143 = icmp slt i32 %140, %142
  br i1 %143, label %144, label %157

144:                                              ; preds = %139
  %145 = load i32, ptr %9, align 4
  %146 = sext i32 %145 to i64
  %147 = getelementptr inbounds [4 x i8], ptr %11, i64 0, i64 %146
  %148 = load i8, ptr %147, align 1
  %149 = zext i8 %148 to i64
  %150 = call noundef nonnull align 1 dereferenceable(1) ptr @_ZNKSt7__cxx1112basic_stringIcSt11char_traitsIcESaIcEEixEm(ptr noundef nonnull align 8 dereferenceable(32) @_ZN8tinygltfL12base64_charsB5cxx11E, i64 noundef %149) #3
  %151 = load i8, ptr %150, align 1
  %152 = invoke noundef nonnull align 8 dereferenceable(32) ptr @_ZNSt7__cxx1112basic_stringIcSt11char_traitsIcESaIcEEpLEc(ptr noundef nonnull align 8 dereferenceable(32) %0, i8 noundef signext %151)
          to label %153 unwind label %84

153:                                              ; preds = %144
  br label %154

154:                                              ; preds = %153
  %155 = load i32, ptr %9, align 4
  %156 = add nsw i32 %155, 1
  store i32 %156, ptr %9, align 4
  br label %139, !llvm.loop !11

157:                                              ; preds = %139
  br label %158

158:                                              ; preds = %164, %157
  %159 = load i32, ptr %8, align 4
  %160 = add nsw i32 %159, 1
  store i32 %160, ptr %8, align 4
  %161 = icmp slt i32 %159, 3
  br i1 %161, label %162, label %165

162:                                              ; preds = %158
  %163 = invoke noundef nonnull align 8 dereferenceable(32) ptr @_ZNSt7__cxx1112basic_stringIcSt11char_traitsIcESaIcEEpLEc(ptr noundef nonnull align 8 dereferenceable(32) %0, i8 noundef signext 61)
          to label %164 unwind label %84

164:                                              ; preds = %162
  br label %158, !llvm.loop !12

165:                                              ; preds = %158
  br label %166

166:                                              ; preds = %165, %90
  store i1 true, ptr %7, align 1
  %167 = load i1, ptr %7, align 1
  br i1 %167, label %169, label %168

168:                                              ; preds = %166
  call void @_ZNSt7__cxx1112basic_stringIcSt11char_traitsIcESaIcEED1Ev(ptr noundef nonnull align 8 dereferenceable(32) %0) #3
  br label %169

169:                                              ; preds = %168, %166
  ret void

170:                                              ; preds = %84
  %171 = load ptr, ptr %12, align 8
  %172 = load i32, ptr %13, align 4
  %173 = insertvalue { ptr, i32 } poison, ptr %171, 0
  %174 = insertvalue { ptr, i32 } %173, i32 %172, 1
  resume { ptr, i32 } %174
}