; Function Attrs: mustprogress uwtable
define dso_local void @_ZN8tinygltf13base64_encodeB5cxx11EPKhj(ptr dead_on_unwind noalias nonnull writable sret(%"class.std::__cxx11::basic_string") align 8 %0, ptr nocapture noundef readonly %1, i32 noundef %2) local_unnamed_addr #3 personality ptr @__gxx_personality_v0 {
  %4 = alloca [3 x i8], align 1
  %5 = alloca [4 x i8], align 1
  tail call void @_ZNSt7__cxx1112basic_stringIcSt11char_traitsIcESaIcEEC1Ev(ptr noundef nonnull align 8 dereferenceable(32) %0) #30
  %.not34 = icmp eq i32 %2, 0
  br i1 %.not34, label %.loopexit, label %.lr.ph

.lr.ph:                                           ; preds = %3
  %6 = getelementptr inbounds i8, ptr %4, i64 1
  %7 = getelementptr inbounds i8, ptr %5, i64 1
  %8 = getelementptr inbounds i8, ptr %4, i64 2
  %9 = getelementptr inbounds i8, ptr %5, i64 2
  %10 = getelementptr inbounds i8, ptr %5, i64 3
  br label %11

11:                                               ; preds = %.lr.ph, %.loopexit31
  %.in = phi i32 [ %2, %.lr.ph ], [ %12, %.loopexit31 ]
  %.036 = phi ptr [ %1, %.lr.ph ], [ %13, %.loopexit31 ]
  %.02135 = phi i32 [ 0, %.lr.ph ], [ %.2, %.loopexit31 ]
  %12 = add i32 %.in, -1
  %13 = getelementptr inbounds i8, ptr %.036, i64 1
  %14 = load i8, ptr %.036, align 1
  %15 = add nuw nsw i32 %.02135, 1
  %16 = zext nneg i32 %.02135 to i64
  %17 = getelementptr inbounds [3 x i8], ptr %4, i64 0, i64 %16
  store i8 %14, ptr %17, align 1
  %18 = icmp eq i32 %15, 3
  br i1 %18, label %19, label %.loopexit31

19:                                               ; preds = %11
  %20 = load i8, ptr %4, align 1
  %21 = lshr i8 %20, 2
  store i8 %21, ptr %5, align 1
  %22 = shl i8 %20, 4
  %23 = and i8 %22, 48
  %24 = load i8, ptr %6, align 1
  %25 = lshr i8 %24, 4
  %26 = or disjoint i8 %25, %23
  store i8 %26, ptr %7, align 1
  %27 = shl i8 %24, 2
  %28 = and i8 %27, 60
  %29 = load i8, ptr %8, align 1
  %30 = lshr i8 %29, 6
  %31 = or disjoint i8 %30, %28
  store i8 %31, ptr %9, align 1
  %32 = and i8 %29, 63
  store i8 %32, ptr %10, align 1
  br label %33

33:                                               ; preds = %19, %40
  %indvars.iv = phi i64 [ 0, %19 ], [ %indvars.iv.next, %40 ]
  %34 = getelementptr inbounds [4 x i8], ptr %5, i64 0, i64 %indvars.iv
  %35 = load i8, ptr %34, align 1
  %36 = zext i8 %35 to i64
  %37 = tail call noundef nonnull align 1 dereferenceable(1) ptr @_ZNKSt7__cxx1112basic_stringIcSt11char_traitsIcESaIcEEixEm(ptr noundef nonnull align 8 dereferenceable(32) @_ZN8tinygltfL12base64_charsB5cxx11E, i64 noundef %36) #30
  %38 = load i8, ptr %37, align 1
  %39 = invoke noundef nonnull align 8 dereferenceable(32) ptr @_ZNSt7__cxx1112basic_stringIcSt11char_traitsIcESaIcEEpLEc(ptr noundef nonnull align 8 dereferenceable(32) %0, i8 noundef signext %38)
          to label %40 unwind label %.loopexit.split-lp.loopexit.split-lp

40:                                               ; preds = %33
  %indvars.iv.next = add nuw nsw i64 %indvars.iv, 1
  %exitcond.not = icmp eq i64 %indvars.iv.next, 4
  br i1 %exitcond.not, label %.loopexit31, label %33, !llvm.loop !34

.loopexit26:                                      ; preds = %71
  %lpad.loopexit = landingpad { ptr, i32 }
          cleanup
  br label %.loopexit.split-lp

.loopexit.split-lp.loopexit:                      ; preds = %.lr.ph43
  %lpad.loopexit27 = landingpad { ptr, i32 }
          cleanup
  br label %.loopexit.split-lp

.loopexit.split-lp.loopexit.split-lp:             ; preds = %33
  %lpad.loopexit.split-lp28 = landingpad { ptr, i32 }
          cleanup
  br label %.loopexit.split-lp

.loopexit.split-lp:                               ; preds = %.loopexit.split-lp.loopexit, %.loopexit.split-lp.loopexit.split-lp, %.loopexit26
  %lpad.phi = phi { ptr, i32 } [ %lpad.loopexit, %.loopexit26 ], [ %lpad.loopexit27, %.loopexit.split-lp.loopexit ], [ %lpad.loopexit.split-lp28, %.loopexit.split-lp.loopexit.split-lp ]
  tail call void @_ZNSt7__cxx1112basic_stringIcSt11char_traitsIcESaIcEED1Ev(ptr noundef nonnull align 8 dereferenceable(32) %0) #30
  resume { ptr, i32 } %lpad.phi

.loopexit31:                                      ; preds = %40, %11
  %.2 = phi i32 [ %15, %11 ], [ 0, %40 ]
  %.not = icmp eq i32 %12, 0
  br i1 %.not, label %._crit_edge, label %11, !llvm.loop !35

._crit_edge:                                      ; preds = %.loopexit31
  %.not24 = icmp eq i32 %.2, 0
  br i1 %.not24, label %.loopexit, label %.preheader30

.preheader30:                                     ; preds = %._crit_edge
  %41 = icmp slt i32 %.2, 3
  br i1 %41, label %.lr.ph38.preheader, label %._crit_edge39

.lr.ph38.preheader:                               ; preds = %.preheader30
  %42 = zext i32 %.2 to i64
  %scevgep = getelementptr i8, ptr %4, i64 %42
  %43 = sub i32 2, %.2
  %44 = zext i32 %43 to i64
  %45 = add nuw nsw i64 %44, 1
  call void @llvm.memset.p0.i64(ptr noundef nonnull align 1 dereferenceable(1) %scevgep, i8 0, i64 %45, i1 false)
  br label %._crit_edge39

._crit_edge39:                                    ; preds = %.lr.ph38.preheader, %.preheader30
  %46 = load i8, ptr %4, align 1
  %47 = lshr i8 %46, 2
  store i8 %47, ptr %5, align 1
  %48 = shl i8 %46, 4
  %49 = and i8 %48, 48
  %50 = getelementptr inbounds i8, ptr %4, i64 1
  %51 = load i8, ptr %50, align 1
  %52 = lshr i8 %51, 4
  %53 = or disjoint i8 %52, %49
  %54 = getelementptr inbounds i8, ptr %5, i64 1
  store i8 %53, ptr %54, align 1
  %55 = shl i8 %51, 2
  %56 = and i8 %55, 60
  %57 = getelementptr inbounds i8, ptr %4, i64 2
  %58 = load i8, ptr %57, align 1
  %59 = lshr i8 %58, 6
  %60 = or disjoint i8 %59, %56
  %61 = getelementptr inbounds i8, ptr %5, i64 2
  store i8 %60, ptr %61, align 1
  %.not2540 = icmp slt i32 %.2, 0
  br i1 %.not2540, label %.preheader, label %.lr.ph43.preheader

.lr.ph43.preheader:                               ; preds = %._crit_edge39
  %62 = add nuw i32 %.2, 1
  %wide.trip.count = zext i32 %62 to i64
  br label %.lr.ph43

.preheader:                                       ; preds = %69, %._crit_edge39
  %smax = tail call i32 @llvm.smax.i32(i32 %.2, i32 3)
  br label %70

.lr.ph43:                                         ; preds = %.lr.ph43.preheader, %69
  %indvars.iv48 = phi i64 [ 0, %.lr.ph43.preheader ], [ %indvars.iv.next49, %69 ]
  %63 = getelementptr inbounds [4 x i8], ptr %5, i64 0, i64 %indvars.iv48
  %64 = load i8, ptr %63, align 1
  %65 = zext i8 %64 to i64
  %66 = tail call noundef nonnull align 1 dereferenceable(1) ptr @_ZNKSt7__cxx1112basic_stringIcSt11char_traitsIcESaIcEEixEm(ptr noundef nonnull align 8 dereferenceable(32) @_ZN8tinygltfL12base64_charsB5cxx11E, i64 noundef %65) #30
  %67 = load i8, ptr %66, align 1
  %68 = invoke noundef nonnull align 8 dereferenceable(32) ptr @_ZNSt7__cxx1112basic_stringIcSt11char_traitsIcESaIcEEpLEc(ptr noundef nonnull align 8 dereferenceable(32) %0, i8 noundef signext %67)
          to label %69 unwind label %.loopexit.split-lp.loopexit

69:                                               ; preds = %.lr.ph43
  %indvars.iv.next49 = add nuw nsw i64 %indvars.iv48, 1
  %exitcond51.not = icmp eq i64 %indvars.iv.next49, %wide.trip.count
  br i1 %exitcond51.not, label %.preheader, label %.lr.ph43, !llvm.loop !36

70:                                               ; preds = %.preheader, %71
  %.3 = phi i32 [ %72, %71 ], [ %.2, %.preheader ]
  %exitcond52.not = icmp eq i32 %.3, %smax
  br i1 %exitcond52.not, label %.loopexit, label %71

71:                                               ; preds = %70
  %72 = add i32 %.3, 1
  %73 = invoke noundef nonnull align 8 dereferenceable(32) ptr @_ZNSt7__cxx1112basic_stringIcSt11char_traitsIcESaIcEEpLEc(ptr noundef nonnull align 8 dereferenceable(32) %0, i8 noundef signext 61)
          to label %70 unwind label %.loopexit26, !llvm.loop !37

.loopexit:                                        ; preds = %70, %3, %._crit_edge
  ret void
}